target datalayout = "e-m:e-p270:32:32-p271:32:32-p272:64:64-i64:64-i128:128-f80:128-n8:16:32:64-S128"
target triple = "x86_64-pc-linux-gnu"

%struct.alts_zero_copy_grpc_protector = type { %struct.tsi_zero_copy_grpc_protector, ptr, ptr, i64, i64, %struct.grpc_slice_buffer, %struct.grpc_slice_buffer, %struct.grpc_slice_buffer, i32 }
%struct.tsi_zero_copy_grpc_protector = type { ptr }
%struct.grpc_slice_buffer = type { ptr, ptr, i64, i64, i64, [6 x %struct.grpc_slice] }
%struct.grpc_slice = type { ptr, %"union.grpc_slice::grpc_slice_data" }
%"union.grpc_slice::grpc_slice_data" = type { %"struct.grpc_slice::grpc_slice_data::grpc_slice_refcounted", [8 x i8] }
%"struct.grpc_slice::grpc_slice_data::grpc_slice_refcounted" = type { i64, ptr }

; Function Attrs: mustprogress uwtable
define internal void @_ZL37alts_zero_copy_grpc_protector_destroyP28tsi_zero_copy_grpc_protector(ptr noundef %0) #4 {
  %2 = alloca ptr, align 8
  %3 = alloca ptr, align 8
  store ptr %0, ptr %2, align 8, !tbaa !40
  %4 = load ptr, ptr %2, align 8, !tbaa !40
  %5 = icmp eq ptr %4, null
  br i1 %5, label %6, label %7

6:                                                ; preds = %1
  br label %22

7:                                                ; preds = %1
  call void @llvm.lifetime.start.p0(i64 8, ptr %3) #3
  %8 = load ptr, ptr %2, align 8, !tbaa !40
  store ptr %8, ptr %3, align 8, !tbaa !15
  %9 = load ptr, ptr %3, align 8, !tbaa !15
  %10 = getelementptr inbounds nuw %struct.alts_zero_copy_grpc_protector, ptr %9, i32 0, i32 1
  %11 = load ptr, ptr %10, align 8, !tbaa !33
  call void @_Z33alts_grpc_record_protocol_destroyP25alts_grpc_record_protocol(ptr noundef %11)
  %12 = load ptr, ptr %3, align 8, !tbaa !15
  %13 = getelementptr inbounds nuw %struct.alts_zero_copy_grpc_protector, ptr %12, i32 0, i32 2
  %14 = load ptr, ptr %13, align 8, !tbaa !42
  call void @_Z33alts_grpc_record_protocol_destroyP25alts_grpc_record_protocol(ptr noundef %14)
  %15 = load ptr, ptr %3, align 8, !tbaa !15
  %16 = getelementptr inbounds nuw %struct.alts_zero_copy_grpc_protector, ptr %15, i32 0, i32 5
  call void @grpc_slice_buffer_destroy(ptr noundef %16)
  %17 = load ptr, ptr %3, align 8, !tbaa !15
  %18 = getelementptr inbounds nuw %struct.alts_zero_copy_grpc_protector, ptr %17, i32 0, i32 6
  call void @grpc_slice_buffer_destroy(ptr noundef %18)
  %19 = load ptr, ptr %3, align 8, !tbaa !15
  %20 = getelementptr inbounds nuw %struct.alts_zero_copy_grpc_protector, ptr %19, i32 0, i32 7
  call void @grpc_slice_buffer_destroy(ptr noundef %20)
  %21 = load ptr, ptr %3, align 8, !tbaa !15
  call void @gpr_free(ptr noundef %21)
  call void @llvm.lifetime.end.p0(i64 8, ptr %3) #3
  br label %22

22:                                               ; preds = %7, %6
  ret void
}