; Function Attrs: mustprogress uwtable
define internal void @_ZL37alts_zero_copy_grpc_protector_destroyP28tsi_zero_copy_grpc_protector(ptr noundef %0) #3 {
  %2 = icmp eq ptr %0, null
  br i1 %2, label %11, label %3

3:                                                ; preds = %1
  %4 = getelementptr inbounds nuw i8, ptr %0, i64 8
  %5 = load ptr, ptr %4, align 8, !tbaa !20
  tail call void @_Z33alts_grpc_record_protocol_destroyP25alts_grpc_record_protocol(ptr noundef %5)
  %6 = getelementptr inbounds nuw i8, ptr %0, i64 16
  %7 = load ptr, ptr %6, align 8, !tbaa !32
  tail call void @_Z33alts_grpc_record_protocol_destroyP25alts_grpc_record_protocol(ptr noundef %7)
  %8 = getelementptr inbounds nuw i8, ptr %0, i64 40
  tail call void @grpc_slice_buffer_destroy(ptr noundef nonnull %8)
  %9 = getelementptr inbounds nuw i8, ptr %0, i64 272
  tail call void @grpc_slice_buffer_destroy(ptr noundef nonnull %9)
  %10 = getelementptr inbounds nuw i8, ptr %0, i64 504
  tail call void @grpc_slice_buffer_destroy(ptr noundef nonnull %10)
  tail call void @gpr_free(ptr noundef nonnull %0)
  br label %11

11:                                               ; preds = %1, %3
  ret void
}